; Function Attrs: nounwind uwtable
define internal zeroext i1 @HIDAPI_DriverXbox360W_RumbleJoystick(ptr noundef %0, ptr readnone captures(none) %1, i16 noundef zeroext %2, i16 noundef zeroext %3) #0 {
  %5 = alloca [12 x i8], align 1
  call void @llvm.lifetime.start.p0(i64 12, ptr nonnull %5) #8
  call void @llvm.memcpy.p0.p0.i64(ptr noundef nonnull align 1 dereferenceable(12) %5, ptr noundef nonnull align 1 dereferenceable(12) @__const.HIDAPI_DriverXbox360W_RumbleJoystick.rumble_packet, i64 12, i1 false)
  %6 = lshr i16 %2, 8
  %7 = trunc nuw i16 %6 to i8
  %8 = getelementptr inbounds nuw i8, ptr %5, i64 5
  store i8 %7, ptr %8, align 1
  %9 = lshr i16 %3, 8
  %10 = trunc nuw i16 %9 to i8
  %11 = getelementptr inbounds nuw i8, ptr %5, i64 6
  store i8 %10, ptr %11, align 1
  %12 = call i32 @SDL_HIDAPI_SendRumble(ptr noundef %0, ptr noundef nonnull %5, i32 noundef 12) #8
  %.not = icmp eq i32 %12, 12
  br i1 %.not, label %15, label %13

13:                                               ; preds = %4
  %14 = call zeroext i1 (ptr, ...) @SDL_SetError_REAL(ptr noundef nonnull @.str.7) #8
  br label %15

15:                                               ; preds = %4, %13
  %.0 = phi i1 [ %14, %13 ], [ true, %4 ]
  call void @llvm.lifetime.end.p0(i64 12, ptr nonnull %5) #8
  ret i1 %.0
}